; Function Attrs: mustprogress nounwind uwtable
define hidden void @_ZN10JavaThread22popframe_preserve_argsE8ByteSizePv(ptr nocapture noundef nonnull writeonly align 8 dereferenceable(1800) %0, i32 noundef %1, ptr nocapture noundef readonly %2) local_unnamed_addr #0 align 2 {
  %.not = icmp eq i32 %1, 0
  br i1 %.not, label %9, label %4

4:                                                ; preds = %3
  %5 = sext i32 %1 to i64
  %6 = tail call noundef ptr @_Z12AllocateHeapm8MEMFLAGSN17AllocFailStrategy13AllocFailEnumE(i64 noundef %5, i8 noundef zeroext 2, i32 noundef 0) #21
  %7 = getelementptr inbounds i8, ptr %0, i64 1520
  store ptr %6, ptr %7, align 8
  %8 = getelementptr inbounds i8, ptr %0, i64 1528
  store i32 %1, ptr %8, align 8
  tail call void @llvm.memmove.p0.p0.i64(ptr align 1 %6, ptr align 1 %2, i64 %5, i1 false)
  br label %9

9:                                                ; preds = %4, %3
  ret void
}